; Function Attrs: nounwind uwtable
define internal fastcc ptr @get_common_eclass_indexes(ptr noundef readonly captures(none) %0, ptr noundef %1, ptr noundef %2) unnamed_addr #0 {
  %4 = alloca i32, align 4
  call void @llvm.lifetime.start.p0(i64 4, ptr nonnull %4) #8
  %5 = tail call i32 @bms_next_member(ptr noundef %1, i32 noundef -1) #8
  %6 = icmp sgt i32 %5, 0
  br i1 %6, label %.lr.ph.i, label %get_eclass_indexes_for_relids.exit

.lr.ph.i:                                         ; preds = %3
  %7 = getelementptr inbounds nuw i8, ptr %0, i64 56
  %8 = getelementptr inbounds nuw i8, ptr %0, i64 604
  br label %9

9:                                                ; preds = %22, %.lr.ph.i
  %10 = phi i32 [ %5, %.lr.ph.i ], [ %23, %22 ]
  %.012.i = phi ptr [ null, %.lr.ph.i ], [ %.1.i, %22 ]
  %11 = load ptr, ptr %7, align 8
  %12 = zext nneg i32 %10 to i64
  %13 = getelementptr inbounds nuw ptr, ptr %11, i64 %12
  %14 = load ptr, ptr %13, align 8
  %15 = load i32, ptr %8, align 4
  %16 = icmp eq i32 %10, %15
  %17 = icmp eq ptr %14, null
  %or.cond.i = select i1 %16, i1 true, i1 %17
  br i1 %or.cond.i, label %22, label %18, !llvm.loop !11

18:                                               ; preds = %9
  %19 = getelementptr inbounds nuw i8, ptr %14, i64 216
  %20 = load ptr, ptr %19, align 8
  %21 = tail call ptr @bms_add_members(ptr noundef %.012.i, ptr noundef %20) #8
  br label %22

22:                                               ; preds = %18, %9
  %.1.i = phi ptr [ %21, %18 ], [ %.012.i, %9 ]
  %23 = tail call i32 @bms_next_member(ptr noundef %1, i32 noundef %10) #8
  %24 = icmp sgt i32 %23, 0
  br i1 %24, label %9, label %get_eclass_indexes_for_relids.exit

get_eclass_indexes_for_relids.exit:               ; preds = %22, %3
  %.0.lcssa.i = phi ptr [ null, %3 ], [ %.1.i, %22 ]
  %25 = call zeroext i1 @bms_get_singleton_member(ptr noundef %2, ptr noundef nonnull %4) #8
  br i1 %25, label %26, label %35

26:                                               ; preds = %get_eclass_indexes_for_relids.exit
  %27 = getelementptr inbounds nuw i8, ptr %0, i64 56
  %28 = load ptr, ptr %27, align 8
  %29 = load i32, ptr %4, align 4
  %30 = sext i32 %29 to i64
  %31 = getelementptr inbounds ptr, ptr %28, i64 %30
  %32 = load ptr, ptr %31, align 8
  %33 = getelementptr inbounds nuw i8, ptr %32, i64 216
  %34 = load ptr, ptr %33, align 8
  br label %get_eclass_indexes_for_relids.exit13

35:                                               ; preds = %get_eclass_indexes_for_relids.exit
  %36 = call i32 @bms_next_member(ptr noundef %2, i32 noundef -1) #8
  %37 = icmp sgt i32 %36, 0
  br i1 %37, label %.lr.ph.i9, label %get_eclass_indexes_for_relids.exit13

.lr.ph.i9:                                        ; preds = %35
  %38 = getelementptr inbounds nuw i8, ptr %0, i64 56
  %39 = getelementptr inbounds nuw i8, ptr %0, i64 604
  br label %40

40:                                               ; preds = %53, %.lr.ph.i9
  %41 = phi i32 [ %36, %.lr.ph.i9 ], [ %54, %53 ]
  %.012.i10 = phi ptr [ null, %.lr.ph.i9 ], [ %.1.i12, %53 ]
  %42 = load ptr, ptr %38, align 8
  %43 = zext nneg i32 %41 to i64
  %44 = getelementptr inbounds nuw ptr, ptr %42, i64 %43
  %45 = load ptr, ptr %44, align 8
  %46 = load i32, ptr %39, align 4
  %47 = icmp eq i32 %41, %46
  %48 = icmp eq ptr %45, null
  %or.cond.i11 = select i1 %47, i1 true, i1 %48
  br i1 %or.cond.i11, label %53, label %49, !llvm.loop !11

49:                                               ; preds = %40
  %50 = getelementptr inbounds nuw i8, ptr %45, i64 216
  %51 = load ptr, ptr %50, align 8
  %52 = call ptr @bms_add_members(ptr noundef %.012.i10, ptr noundef %51) #8
  br label %53

53:                                               ; preds = %49, %40
  %.1.i12 = phi ptr [ %52, %49 ], [ %.012.i10, %40 ]
  %54 = call i32 @bms_next_member(ptr noundef %2, i32 noundef %41) #8
  %55 = icmp sgt i32 %54, 0
  br i1 %55, label %40, label %get_eclass_indexes_for_relids.exit13

get_eclass_indexes_for_relids.exit13:             ; preds = %53, %35, %26
  %.0 = phi ptr [ %34, %26 ], [ null, %35 ], [ %.1.i12, %53 ]
  %56 = call ptr @bms_int_members(ptr noundef %.0.lcssa.i, ptr noundef %.0) #8
  call void @llvm.lifetime.end.p0(i64 4, ptr nonnull %4) #8
  ret ptr %56
}